target datalayout = "e-m:e-p270:32:32-p271:32:32-p272:64:64-i64:64-i128:128-f80:128-n8:16:32:64-S128"
target triple = "x86_64-pc-linux-gnu"

%struct.ClusterInfo = type { %struct.ControlData, ptr, %struct.DbInfoArr, ptr, ptr, ptr, ptr, ptr, i16, i32, [64 x i8], i32, ptr, i32 }
%struct.ControlData = type { i32, i32, [25 x i8], i32, i32, i32, i32, i32, i32, i32, i32, i32, i32, i32, i32, i32, i32, i32, i32, i8, i8, i32 }
%struct.DbInfoArr = type { ptr, i32 }
%struct.DbInfo = type { i32, ptr, [1024 x i8], %struct.RelInfoArr, %struct.LogicalSlotInfoArr }
%struct.RelInfoArr = type { ptr, i32 }
%struct.LogicalSlotInfoArr = type { i32, ptr }

@old_cluster = external global %struct.ClusterInfo, align 8

; Function Attrs: nounwind uwtable
define dso_local i32 @count_old_cluster_logical_slots() #0 {
  %1 = alloca i32, align 4
  %2 = alloca i32, align 4
  call void @llvm.lifetime.start.p0(i64 4, ptr %1) #7
  store i32 0, ptr %1, align 4
  call void @llvm.lifetime.start.p0(i64 4, ptr %2) #7
  store i32 0, ptr %2, align 4
  br label %3

3:                                                ; preds = %18, %0
  %4 = load i32, ptr %2, align 4
  %5 = load i32, ptr getelementptr inbounds nuw (%struct.DbInfoArr, ptr getelementptr inbounds nuw (%struct.ClusterInfo, ptr @old_cluster, i32 0, i32 2), i32 0, i32 1), align 8
  %6 = icmp slt i32 %4, %5
  br i1 %6, label %8, label %7

7:                                                ; preds = %3
  call void @llvm.lifetime.end.p0(i64 4, ptr %2) #7
  br label %21

8:                                                ; preds = %3
  %9 = load ptr, ptr getelementptr inbounds nuw (%struct.ClusterInfo, ptr @old_cluster, i32 0, i32 2), align 8
  %10 = load i32, ptr %2, align 4
  %11 = sext i32 %10 to i64
  %12 = getelementptr inbounds %struct.DbInfo, ptr %9, i64 %11
  %13 = getelementptr inbounds nuw %struct.DbInfo, ptr %12, i32 0, i32 4
  %14 = getelementptr inbounds nuw %struct.LogicalSlotInfoArr, ptr %13, i32 0, i32 0
  %15 = load i32, ptr %14, align 8
  %16 = load i32, ptr %1, align 4
  %17 = add i32 %16, %15
  store i32 %17, ptr %1, align 4
  br label %18

18:                                               ; preds = %8
  %19 = load i32, ptr %2, align 4
  %20 = add i32 %19, 1
  store i32 %20, ptr %2, align 4
  br label %3, !llvm.loop !15

21:                                               ; preds = %7
  %22 = load i32, ptr %1, align 4
  call void @llvm.lifetime.end.p0(i64 4, ptr %1) #7
  ret i32 %22
}