; Function Attrs: nofree norecurse nosync nounwind memory(read, inaccessiblemem: none) uwtable
define dso_local i32 @count_old_cluster_logical_slots() local_unnamed_addr #5 {
  %1 = load i32, ptr getelementptr inbounds nuw (i8, ptr @old_cluster, i64 128), align 8
  %2 = icmp sgt i32 %1, 0
  br i1 %2, label %.lr.ph, label %._crit_edge

.lr.ph:                                           ; preds = %0
  %3 = load ptr, ptr getelementptr inbounds nuw (i8, ptr @old_cluster, i64 120), align 8
  %wide.trip.count = zext nneg i32 %1 to i64
  br label %4

._crit_edge:                                      ; preds = %4, %0
  %.05.lcssa = phi i32 [ 0, %0 ], [ %7, %4 ]
  ret i32 %.05.lcssa

4:                                                ; preds = %.lr.ph, %4
  %indvars.iv = phi i64 [ 0, %.lr.ph ], [ %indvars.iv.next, %4 ]
  %.056 = phi i32 [ 0, %.lr.ph ], [ %7, %4 ]
  %5 = getelementptr inbounds nuw %struct.DbInfo, ptr %3, i64 %indvars.iv, i32 4
  %6 = load i32, ptr %5, align 8
  %7 = add i32 %6, %.056
  %indvars.iv.next = add nuw nsw i64 %indvars.iv, 1
  %exitcond.not = icmp eq i64 %indvars.iv.next, %wide.trip.count
  br i1 %exitcond.not, label %._crit_edge, label %4, !llvm.loop !18
}